; Function Attrs: nounwind uwtable
define dso_local void @UpdateChangedParamSet(ptr noundef captures(none) %0, ptr noundef %1) local_unnamed_addr #0 {
  %3 = getelementptr inbounds nuw i8, ptr %0, i64 8
  %4 = load ptr, ptr %3, align 8
  %5 = getelementptr inbounds nuw i8, ptr %4, i64 96
  %6 = load ptr, ptr %5, align 8
  %7 = tail call ptr @bms_intersect(ptr noundef %6, ptr noundef %1) #12
  %8 = getelementptr inbounds nuw i8, ptr %0, i64 104
  %9 = load ptr, ptr %8, align 8
  %10 = tail call ptr @bms_join(ptr noundef %9, ptr noundef %7) #12
  store ptr %10, ptr %8, align 8
  ret void
}